; Function Attrs: mustprogress uwtable
define void @_ZN4LIEF5MachO4Hash5visitERKNS0_15DyldExportsTrieE(ptr noundef nonnull align 8 dereferenceable(64) %0, ptr noundef nonnull align 8 dereferenceable(104) %1) unnamed_addr #3 align 2 {
  %3 = load ptr, ptr %0, align 8
  %4 = getelementptr inbounds i8, ptr %3, i64 872
  %5 = load ptr, ptr %4, align 8
  tail call void %5(ptr noundef nonnull align 8 dereferenceable(64) %0, ptr noundef nonnull align 8 dereferenceable(56) %1)
  %6 = tail call noundef i32 @_ZNK4LIEF5MachO15DyldExportsTrie11data_offsetEv(ptr noundef nonnull align 8 dereferenceable(104) %1)
  %7 = zext i32 %6 to i64
  %8 = load ptr, ptr %0, align 8
  %9 = getelementptr inbounds i8, ptr %8, i64 1328
  %10 = load ptr, ptr %9, align 8
  %11 = tail call noundef nonnull align 8 dereferenceable(64) ptr %10(ptr noundef nonnull align 8 dereferenceable(64) %0, i64 noundef %7)
  %12 = tail call noundef i32 @_ZNK4LIEF5MachO15DyldExportsTrie9data_sizeEv(ptr noundef nonnull align 8 dereferenceable(104) %1)
  %13 = zext i32 %12 to i64
  %14 = load ptr, ptr %0, align 8
  %15 = getelementptr inbounds i8, ptr %14, i64 1328
  %16 = load ptr, ptr %15, align 8
  %17 = tail call noundef nonnull align 8 dereferenceable(64) ptr %16(ptr noundef nonnull align 8 dereferenceable(64) %0, i64 noundef %13)
  %18 = getelementptr inbounds i8, ptr %1, i64 64
  %19 = load ptr, ptr %18, align 8
  %20 = getelementptr inbounds i8, ptr %1, i64 72
  %21 = load i64, ptr %20, align 8
  %22 = load ptr, ptr %0, align 8
  %23 = getelementptr inbounds i8, ptr %22, i64 1360
  %24 = load ptr, ptr %23, align 8
  %25 = tail call noundef nonnull align 8 dereferenceable(64) ptr %24(ptr noundef nonnull align 8 dereferenceable(64) %0, ptr %19, i64 %21)
  ret void
}